target datalayout = "e-m:e-p270:32:32-p271:32:32-p272:64:64-i64:64-i128:128-f80:128-n8:16:32:64-S128"
target triple = "x86_64-unknown-linux-gnu"

%"class.net::QuicConfigValue" = type { ptr, i32, i32 }

@_ZTVN3net15QuicConfigValueE = dso_local unnamed_addr constant { [6 x ptr] } { [6 x ptr] [ptr null, ptr @_ZTIN3net15QuicConfigValueE, ptr @_ZN3net15QuicConfigValueD1Ev, ptr @_ZN3net15QuicConfigValueD0Ev, ptr @__cxa_pure_virtual, ptr @__cxa_pure_virtual] }, align 8

; Function Attrs: mustprogress nounwind uwtable
define dso_local void @_ZN3net15QuicConfigValueC2EjNS_18QuicConfigPresenceE(ptr noundef nonnull align 8 dereferenceable(16) %this, i32 noundef %tag, i32 noundef %presence) unnamed_addr #3 align 2 {
entry:
  %this.addr = alloca ptr, align 8
  %tag.addr = alloca i32, align 4
  %presence.addr = alloca i32, align 4
  store ptr %this, ptr %this.addr, align 8
  store i32 %tag, ptr %tag.addr, align 4
  store i32 %presence, ptr %presence.addr, align 4
  %this1 = load ptr, ptr %this.addr, align 8
  store ptr getelementptr inbounds ({ [6 x ptr] }, ptr @_ZTVN3net15QuicConfigValueE, i32 0, i32 0, i32 2), ptr %this1, align 8
  %tag_ = getelementptr inbounds %"class.net::QuicConfigValue", ptr %this1, i32 0, i32 1
  %0 = load i32, ptr %tag.addr, align 4
  store i32 %0, ptr %tag_, align 8
  %presence_ = getelementptr inbounds %"class.net::QuicConfigValue", ptr %this1, i32 0, i32 2
  %1 = load i32, ptr %presence.addr, align 4
  store i32 %1, ptr %presence_, align 4
  ret void
}